target datalayout = "e-m:e-p270:32:32-p271:32:32-p272:64:64-i64:64-i128:128-f80:128-n8:16:32:64-S128"
target triple = "x86_64-pc-linux-gnu"

%struct.uv_semaphore_s = type { %union.pthread_mutex_t, %union.pthread_cond_t, i32 }
%union.pthread_mutex_t = type { %struct.__pthread_mutex_s }
%struct.__pthread_mutex_s = type { i32, i32, i32, i32, i32, i16, i16, %struct.__pthread_internal_list }
%struct.__pthread_internal_list = type { ptr, ptr }
%union.pthread_cond_t = type { %struct.__pthread_cond_s }
%struct.__pthread_cond_s = type { %union.__atomic_wide_counter, %union.__atomic_wide_counter, [2 x i32], [2 x i32], i32, i32, [2 x i32] }
%union.__atomic_wide_counter = type { i64 }

@platform_needs_custom_semaphore = internal global i32 0, align 4

; Function Attrs: nounwind uwtable
define dso_local void @uv_mutex_unlock(ptr noundef %0) #0 {
  %2 = alloca ptr, align 8
  store ptr %0, ptr %2, align 8, !tbaa !4
  %3 = load ptr, ptr %2, align 8, !tbaa !4
  %4 = call i32 @pthread_mutex_unlock(ptr noundef %3) #8
  %5 = icmp ne i32 %4, 0
  br i1 %5, label %6, label %7

6:                                                ; preds = %1
  call void @abort() #9
  unreachable

7:                                                ; preds = %1
  ret void
}

; Function Attrs: nounwind uwtable
define dso_local i32 @uv_mutex_trylock(ptr noundef %0) #0 {
  %2 = alloca i32, align 4
  %3 = alloca ptr, align 8
  %4 = alloca i32, align 4
  %5 = alloca i32, align 4
  store ptr %0, ptr %3, align 8, !tbaa !4
  call void @llvm.lifetime.start.p0(i64 4, ptr %4) #8
  %6 = load ptr, ptr %3, align 8, !tbaa !4
  %7 = call i32 @pthread_mutex_trylock(ptr noundef %6) #8
  store i32 %7, ptr %4, align 4, !tbaa !8
  %8 = load i32, ptr %4, align 4, !tbaa !8
  %9 = icmp ne i32 %8, 0
  br i1 %9, label %10, label %18

10:                                               ; preds = %1
  %11 = load i32, ptr %4, align 4, !tbaa !8
  %12 = icmp ne i32 %11, 16
  br i1 %12, label %13, label %17

13:                                               ; preds = %10
  %14 = load i32, ptr %4, align 4, !tbaa !8
  %15 = icmp ne i32 %14, 11
  br i1 %15, label %16, label %17

16:                                               ; preds = %13
  call void @abort() #9
  unreachable

17:                                               ; preds = %13, %10
  store i32 -16, ptr %2, align 4
  store i32 1, ptr %5, align 4
  br label %19

18:                                               ; preds = %1
  store i32 0, ptr %2, align 4
  store i32 1, ptr %5, align 4
  br label %19

19:                                               ; preds = %18, %17
  call void @llvm.lifetime.end.p0(i64 4, ptr %4) #8
  %20 = load i32, ptr %2, align 4
  ret i32 %20
}

; Function Attrs: nounwind uwtable
define internal i32 @uv__sem_trywait(ptr noundef %0) #0 {
  %2 = alloca i32, align 4
  %3 = alloca ptr, align 8
  %4 = alloca i32, align 4
  %5 = alloca i32, align 4
  store ptr %0, ptr %3, align 8, !tbaa !4
  call void @llvm.lifetime.start.p0(i64 4, ptr %4) #8
  br label %6

6:                                                ; preds = %16, %1
  %7 = load ptr, ptr %3, align 8, !tbaa !4
  %8 = call i32 @sem_trywait(ptr noundef %7) #8
  store i32 %8, ptr %4, align 4, !tbaa !8
  br label %9

9:                                                ; preds = %6
  %10 = load i32, ptr %4, align 4, !tbaa !8
  %11 = icmp eq i32 %10, -1
  br i1 %11, label %12, label %16

12:                                               ; preds = %9
  %13 = call ptr @__errno_location() #10
  %14 = load i32, ptr %13, align 4, !tbaa !8
  %15 = icmp eq i32 %14, 4
  br label %16

16:                                               ; preds = %12, %9
  %17 = phi i1 [ false, %9 ], [ %15, %12 ]
  br i1 %17, label %6, label %18, !llvm.loop !35

18:                                               ; preds = %16
  %19 = load i32, ptr %4, align 4, !tbaa !8
  %20 = icmp ne i32 %19, 0
  br i1 %20, label %21, label %27

21:                                               ; preds = %18
  %22 = call ptr @__errno_location() #10
  %23 = load i32, ptr %22, align 4, !tbaa !8
  %24 = icmp eq i32 %23, 11
  br i1 %24, label %25, label %26

25:                                               ; preds = %21
  store i32 -11, ptr %2, align 4
  store i32 1, ptr %5, align 4
  br label %28

26:                                               ; preds = %21
  call void @abort() #9
  unreachable

27:                                               ; preds = %18
  store i32 0, ptr %2, align 4
  store i32 1, ptr %5, align 4
  br label %28

28:                                               ; preds = %27, %25
  call void @llvm.lifetime.end.p0(i64 4, ptr %4) #8
  %29 = load i32, ptr %2, align 4
  ret i32 %29
}

; Function Attrs: nounwind uwtable
define internal i32 @uv__custom_sem_trywait(ptr noundef %0) #0 {
  %2 = alloca i32, align 4
  %3 = alloca ptr, align 8
  %4 = alloca ptr, align 8
  %5 = alloca i32, align 4
  store ptr %0, ptr %3, align 8, !tbaa !4
  call void @llvm.lifetime.start.p0(i64 8, ptr %4) #8
  %6 = load ptr, ptr %3, align 8, !tbaa !4
  %7 = load ptr, ptr %6, align 8, !tbaa !28
  store ptr %7, ptr %4, align 8, !tbaa !28
  %8 = load ptr, ptr %4, align 8, !tbaa !28
  %9 = getelementptr inbounds nuw %struct.uv_semaphore_s, ptr %8, i32 0, i32 0
  %10 = call i32 @uv_mutex_trylock(ptr noundef %9)
  %11 = icmp ne i32 %10, 0
  br i1 %11, label %12, label %13

12:                                               ; preds = %1
  store i32 -11, ptr %2, align 4
  store i32 1, ptr %5, align 4
  br label %28

13:                                               ; preds = %1
  %14 = load ptr, ptr %4, align 8, !tbaa !28
  %15 = getelementptr inbounds nuw %struct.uv_semaphore_s, ptr %14, i32 0, i32 2
  %16 = load i32, ptr %15, align 8, !tbaa !30
  %17 = icmp eq i32 %16, 0
  br i1 %17, label %18, label %21

18:                                               ; preds = %13
  %19 = load ptr, ptr %4, align 8, !tbaa !28
  %20 = getelementptr inbounds nuw %struct.uv_semaphore_s, ptr %19, i32 0, i32 0
  call void @uv_mutex_unlock(ptr noundef %20)
  store i32 -11, ptr %2, align 4
  store i32 1, ptr %5, align 4
  br label %28

21:                                               ; preds = %13
  %22 = load ptr, ptr %4, align 8, !tbaa !28
  %23 = getelementptr inbounds nuw %struct.uv_semaphore_s, ptr %22, i32 0, i32 2
  %24 = load i32, ptr %23, align 8, !tbaa !30
  %25 = add i32 %24, -1
  store i32 %25, ptr %23, align 8, !tbaa !30
  %26 = load ptr, ptr %4, align 8, !tbaa !28
  %27 = getelementptr inbounds nuw %struct.uv_semaphore_s, ptr %26, i32 0, i32 0
  call void @uv_mutex_unlock(ptr noundef %27)
  store i32 0, ptr %2, align 4
  store i32 1, ptr %5, align 4
  br label %28

28:                                               ; preds = %21, %18, %12
  call void @llvm.lifetime.end.p0(i64 8, ptr %4) #8
  %29 = load i32, ptr %2, align 4
  ret i32 %29
}

; Function Attrs: nounwind uwtable
define dso_local i32 @uv_sem_trywait(ptr noundef %0) #0 {
  %2 = alloca i32, align 4
  %3 = alloca ptr, align 8
  store ptr %0, ptr %3, align 8, !tbaa !4
  %4 = load i32, ptr @platform_needs_custom_semaphore, align 4, !tbaa !8
  %5 = icmp ne i32 %4, 0
  br i1 %5, label %6, label %9

6:                                                ; preds = %1
  %7 = load ptr, ptr %3, align 8, !tbaa !4
  %8 = call i32 @uv__custom_sem_trywait(ptr noundef %7)
  store i32 %8, ptr %2, align 4
  br label %12

9:                                                ; preds = %1
  %10 = load ptr, ptr %3, align 8, !tbaa !4
  %11 = call i32 @uv__sem_trywait(ptr noundef %10)
  store i32 %11, ptr %2, align 4
  br label %12

12:                                               ; preds = %9, %6
  %13 = load i32, ptr %2, align 4
  ret i32 %13
}