; Function Attrs: nounwind uwtable
define dso_local range(i32 -11, 1) i32 @uv_sem_trywait(ptr noundef %0) local_unnamed_addr #0 {
  %2 = load i32, ptr @platform_needs_custom_semaphore, align 4, !tbaa !14
  %.not = icmp eq i32 %2, 0
  br i1 %.not, label %.preheader, label %3

3:                                                ; preds = %1
  %.val = load ptr, ptr %0, align 8, !tbaa !17
  %4 = tail call i32 @pthread_mutex_trylock(ptr noundef %.val) #10
  switch i32 %4, label %5 [
    i32 0, label %6
    i32 16, label %uv__custom_sem_trywait.exit
    i32 11, label %uv__custom_sem_trywait.exit
  ]

5:                                                ; preds = %3
  tail call void @abort() #11
  unreachable

6:                                                ; preds = %3
  %7 = getelementptr inbounds nuw i8, ptr %.val, i64 88
  %8 = load i32, ptr %7, align 8, !tbaa !15
  %9 = icmp eq i32 %8, 0
  br i1 %9, label %10, label %13

10:                                               ; preds = %6
  %11 = tail call i32 @pthread_mutex_unlock(ptr noundef nonnull %.val) #10
  %.not.i.i = icmp eq i32 %11, 0
  br i1 %.not.i.i, label %uv__custom_sem_trywait.exit, label %12

12:                                               ; preds = %10
  tail call void @abort() #11
  unreachable

13:                                               ; preds = %6
  %14 = add i32 %8, -1
  store i32 %14, ptr %7, align 8, !tbaa !15
  %15 = tail call i32 @pthread_mutex_unlock(ptr noundef nonnull %.val) #10
  %.not.i7.i = icmp eq i32 %15, 0
  br i1 %.not.i7.i, label %uv__custom_sem_trywait.exit, label %16

16:                                               ; preds = %13
  tail call void @abort() #11
  unreachable

.preheader:                                       ; preds = %1, %18
  %17 = tail call i32 @sem_trywait(ptr noundef %0) #10
  switch i32 %17, label %..critedge_crit_edge.i [
    i32 -1, label %18
    i32 0, label %uv__custom_sem_trywait.exit
  ]

..critedge_crit_edge.i:                           ; preds = %.preheader
  %.pre.i = tail call ptr @__errno_location() #12
  %.pr.i = load i32, ptr %.pre.i, align 4, !tbaa !14
  br label %.critedge.i

18:                                               ; preds = %.preheader
  %19 = tail call ptr @__errno_location() #12
  %20 = load i32, ptr %19, align 4, !tbaa !14
  %21 = icmp eq i32 %20, 4
  br i1 %21, label %.preheader, label %.critedge.i, !llvm.loop !24

.critedge.i:                                      ; preds = %18, %..critedge_crit_edge.i
  %22 = phi i32 [ %.pr.i, %..critedge_crit_edge.i ], [ %20, %18 ]
  %23 = icmp eq i32 %22, 11
  br i1 %23, label %uv__custom_sem_trywait.exit, label %24

24:                                               ; preds = %.critedge.i
  tail call void @abort() #11
  unreachable

uv__custom_sem_trywait.exit:                      ; preds = %.preheader, %.critedge.i, %13, %10, %3, %3
  %.0 = phi i32 [ -11, %3 ], [ -11, %3 ], [ -11, %10 ], [ 0, %13 ], [ -11, %.critedge.i ], [ %17, %.preheader ]
  ret i32 %.0
}